; Function Attrs: mustprogress uwtable
define noundef zeroext i1 @_ZNK32pxrInternal_v0_24__pxrReserved__12PcpPrimIndex14HasAnyPayloadsEv(ptr nocapture noundef nonnull readonly align 8 dereferenceable(40) %0) local_unnamed_addr #3 align 2 {
  %2 = load ptr, ptr %0, align 8
  %.not.i = icmp eq ptr %2, null
  br i1 %.not.i, label %4, label %_ZNK32pxrInternal_v0_24__pxrReserved__8TfRefPtrINS_18PcpPrimIndex_GraphEEptEv.exit

_ZNK32pxrInternal_v0_24__pxrReserved__8TfRefPtrINS_18PcpPrimIndex_GraphEEptEv.exit: ; preds = %1
  %3 = tail call noundef zeroext i1 @_ZNK32pxrInternal_v0_24__pxrReserved__18PcpPrimIndex_Graph11HasPayloadsEv(ptr noundef nonnull align 8 dereferenceable(57) %2)
  br label %4

4:                                                ; preds = %_ZNK32pxrInternal_v0_24__pxrReserved__8TfRefPtrINS_18PcpPrimIndex_GraphEEptEv.exit, %1
  %5 = phi i1 [ false, %1 ], [ %3, %_ZNK32pxrInternal_v0_24__pxrReserved__8TfRefPtrINS_18PcpPrimIndex_GraphEEptEv.exit ]
  ret i1 %5
}